; Function Attrs: mustprogress nounwind uwtable
define internal void @_ZN12_GLOBAL__N_114HostBufferImplD2Ev(ptr noundef nonnull align 8 dereferenceable(224) %0) unnamed_addr #4 align 2 personality ptr @__gxx_personality_v0 {
  %2 = getelementptr inbounds i8, ptr %0, i64 160
  tail call void @_ZN3ade19MemoryDescriptorRefD1Ev(ptr noundef nonnull align 8 dereferenceable(64) %2) #19
  %3 = getelementptr inbounds i8, ptr %0, i64 152
  %4 = load ptr, ptr %3, align 8
  %.not.i = icmp eq ptr %4, null
  br i1 %.not.i, label %_ZNSt10unique_ptrIvN12_GLOBAL__N_114HostBufferImpl7DeleterEED2Ev.exit, label %5

5:                                                ; preds = %1
  invoke void @_ZN3ade12aligned_freeEPv(ptr noundef nonnull %4)
          to label %_ZNSt10unique_ptrIvN12_GLOBAL__N_114HostBufferImpl7DeleterEED2Ev.exit unwind label %6

6:                                                ; preds = %5
  %7 = landingpad { ptr, i32 }
          catch ptr null
  %8 = extractvalue { ptr, i32 } %7, 0
  tail call void @__clang_call_terminate(ptr %8) #23
  unreachable

_ZNSt10unique_ptrIvN12_GLOBAL__N_114HostBufferImpl7DeleterEED2Ev.exit: ; preds = %1, %5
  store ptr null, ptr %3, align 8
  ret void
}